target datalayout = "e-m:e-p270:32:32-p271:32:32-p272:64:64-i64:64-i128:128-f80:128-n8:16:32:64-S128"
target triple = "x86_64-pc-linux-gnu"

%"class.std::__cxx11::basic_string" = type { %"struct.std::__cxx11::basic_string<char>::_Alloc_hider", i64, %union.anon }
%"struct.std::__cxx11::basic_string<char>::_Alloc_hider" = type { ptr }
%union.anon = type { i64, [8 x i8] }
%"class.std::allocator.4" = type { i8 }

@_ZN3nixL15interruptThrownE = internal thread_local global i8 0, align 1
@.str = private unnamed_addr constant [24 x i8] c"interrupted by the user\00", align 1
@_ZTIN3nix11InterruptedE = linkonce_odr constant { ptr, ptr, ptr } { ptr getelementptr inbounds (ptr, ptr @_ZTVN10__cxxabiv120__si_class_type_infoE, i64 2), ptr @_ZTSN3nix11InterruptedE, ptr @_ZTIN3nix9BaseErrorE }, comdat, align 8

; Function Attrs: mustprogress uwtable
define void @_ZN3nix12_interruptedEv() #4 personality ptr @__gxx_personality_v0 {
  %1 = alloca %"class.std::__cxx11::basic_string", align 8
  %2 = alloca %"class.std::allocator.4", align 1
  %3 = alloca ptr, align 8
  %4 = alloca i32, align 4
  %5 = alloca i1, align 1
  %6 = call align 1 ptr @llvm.threadlocal.address.p0(ptr align 1 @_ZN3nixL15interruptThrownE)
  %7 = load i8, ptr %6, align 1
  %8 = trunc i8 %7 to i1
  br i1 %8, label %29, label %9

9:                                                ; preds = %0
  %10 = call noundef i32 @_ZSt19uncaught_exceptionsv() #19
  %11 = icmp ne i32 %10, 0
  br i1 %11, label %29, label %12

12:                                               ; preds = %9
  %13 = call align 1 ptr @llvm.threadlocal.address.p0(ptr align 1 @_ZN3nixL15interruptThrownE)
  store i8 1, ptr %13, align 1
  store i1 true, ptr %5, align 1
  %14 = call ptr @__cxa_allocate_exception(i64 376) #1
  call void @_ZNSaIcEC1Ev(ptr noundef nonnull align 1 dereferenceable(1) %2) #1
  invoke void @_ZNSt7__cxx1112basic_stringIcSt11char_traitsIcESaIcEEC2IS3_EEPKcRKS3_(ptr noundef nonnull align 8 dereferenceable(32) %1, ptr noundef @.str, ptr noundef nonnull align 1 dereferenceable(1) %2)
          to label %15 unwind label %17

15:                                               ; preds = %12
  invoke void @_ZN3nix11InterruptedCI2NS_9BaseErrorEIJEEERKNSt7__cxx1112basic_stringIcSt11char_traitsIcESaIcEEEDpRKT_(ptr noundef nonnull align 8 dereferenceable(376) %14, ptr noundef nonnull align 8 dereferenceable(32) %1)
          to label %16 unwind label %21

16:                                               ; preds = %15
  store i1 false, ptr %5, align 1
  invoke void @__cxa_throw(ptr %14, ptr @_ZTIN3nix11InterruptedE, ptr @_ZN3nix11InterruptedD2Ev) #20
          to label %35 unwind label %21

17:                                               ; preds = %12
  %18 = landingpad { ptr, i32 }
          cleanup
  %19 = extractvalue { ptr, i32 } %18, 0
  store ptr %19, ptr %3, align 8
  %20 = extractvalue { ptr, i32 } %18, 1
  store i32 %20, ptr %4, align 4
  br label %25

21:                                               ; preds = %16, %15
  %22 = landingpad { ptr, i32 }
          cleanup
  %23 = extractvalue { ptr, i32 } %22, 0
  store ptr %23, ptr %3, align 8
  %24 = extractvalue { ptr, i32 } %22, 1
  store i32 %24, ptr %4, align 4
  call void @_ZNSt7__cxx1112basic_stringIcSt11char_traitsIcESaIcEED2Ev(ptr noundef nonnull align 8 dereferenceable(32) %1) #1
  br label %25

25:                                               ; preds = %21, %17
  call void @_ZNSaIcED1Ev(ptr noundef nonnull align 1 dereferenceable(1) %2) #1
  %26 = load i1, ptr %5, align 1
  br i1 %26, label %27, label %28

27:                                               ; preds = %25
  call void @__cxa_free_exception(ptr %14) #1
  br label %28

28:                                               ; preds = %27, %25
  br label %30

29:                                               ; preds = %9, %0
  ret void

30:                                               ; preds = %28
  %31 = load ptr, ptr %3, align 8
  %32 = load i32, ptr %4, align 4
  %33 = insertvalue { ptr, i32 } poison, ptr %31, 0
  %34 = insertvalue { ptr, i32 } %33, i32 %32, 1
  resume { ptr, i32 } %34

35:                                               ; preds = %16
  unreachable
}