; Function Attrs: mustprogress uwtable
define void @_ZN3nix12_interruptedEv() local_unnamed_addr #6 personality ptr @__gxx_personality_v0 {
  %1 = alloca %"class.std::__cxx11::basic_string", align 8
  %2 = alloca %"class.std::allocator.4", align 1
  %3 = tail call align 1 ptr @llvm.threadlocal.address.p0(ptr align 1 @_ZN3nixL15interruptThrownE)
  %4 = load i8, ptr %3, align 1
  %5 = and i8 %4, 1
  %.not = icmp eq i8 %5, 0
  br i1 %.not, label %6, label %16

6:                                                ; preds = %0
  %7 = tail call noundef i32 @_ZSt19uncaught_exceptionsv() #26
  %.not4 = icmp eq i32 %7, 0
  br i1 %.not4, label %8, label %16

8:                                                ; preds = %6
  store i8 1, ptr %3, align 1
  %9 = tail call ptr @__cxa_allocate_exception(i64 376) #3
  call void @_ZNSaIcEC1Ev(ptr noundef nonnull align 1 dereferenceable(1) %2) #3
  invoke void @_ZNSt7__cxx1112basic_stringIcSt11char_traitsIcESaIcEEC2IS3_EEPKcRKS3_(ptr noundef nonnull align 8 dereferenceable(32) %1, ptr noundef nonnull @.str, ptr noundef nonnull align 1 dereferenceable(1) %2)
          to label %10 unwind label %.thread

10:                                               ; preds = %8
  invoke void @_ZN3nix11InterruptedCI2NS_9BaseErrorEIJEEERKNSt7__cxx1112basic_stringIcSt11char_traitsIcESaIcEEEDpRKT_(ptr noundef nonnull align 8 dereferenceable(376) %9, ptr noundef nonnull align 8 dereferenceable(32) %1)
          to label %11 unwind label %13

11:                                               ; preds = %10
  invoke void @__cxa_throw(ptr nonnull %9, ptr nonnull @_ZTIN3nix11InterruptedE, ptr nonnull @_ZN3nix11InterruptedD2Ev) #27
          to label %18 unwind label %13

.thread:                                          ; preds = %8
  %12 = landingpad { ptr, i32 }
          cleanup
  call void @_ZNSaIcED1Ev(ptr noundef nonnull align 1 dereferenceable(1) %2) #3
  br label %15

13:                                               ; preds = %10, %11
  %.0 = phi i1 [ false, %11 ], [ true, %10 ]
  %14 = landingpad { ptr, i32 }
          cleanup
  call void @_ZNSt7__cxx1112basic_stringIcSt11char_traitsIcESaIcEED2Ev(ptr noundef nonnull align 8 dereferenceable(32) %1) #3
  call void @_ZNSaIcED1Ev(ptr noundef nonnull align 1 dereferenceable(1) %2) #3
  br i1 %.0, label %15, label %17

15:                                               ; preds = %.thread, %13
  %.pn9 = phi { ptr, i32 } [ %12, %.thread ], [ %14, %13 ]
  call void @__cxa_free_exception(ptr %9) #3
  br label %17

16:                                               ; preds = %6, %0
  ret void

17:                                               ; preds = %13, %15
  %.pn8 = phi { ptr, i32 } [ %14, %13 ], [ %.pn9, %15 ]
  resume { ptr, i32 } %.pn8

18:                                               ; preds = %11
  unreachable
}